target datalayout = "e-m:e-p270:32:32-p271:32:32-p272:64:64-i64:64-i128:128-f80:128-n8:16:32:64-S128"
target triple = "x86_64-pc-linux-gnu"

%struct._object = type { %union.anon, ptr }
%union.anon = type { i64 }
%struct.PySocketSockObject = type { %struct._object, i32, i32, i32, i32, ptr, i64, ptr }

@.str.529 = private unnamed_addr constant [54 x i8] c"<socket object, fd=%ld, family=%d, type=%d, proto=%d>\00", align 1

; Function Attrs: inlinehint nounwind uwtable
define internal i32 @get_sock_fd(ptr noundef %0) #3 {
  %2 = alloca ptr, align 8
  store ptr %0, ptr %2, align 8, !tbaa !8
  %3 = load ptr, ptr %2, align 8, !tbaa !8
  %4 = getelementptr inbounds nuw %struct.PySocketSockObject, ptr %3, i32 0, i32 1
  %5 = load i32, ptr %4, align 8, !tbaa !113
  ret i32 %5
}

; Function Attrs: nounwind uwtable
define internal ptr @sock_repr(ptr noundef %0) #0 {
  %2 = alloca ptr, align 8
  %3 = alloca ptr, align 8
  %4 = alloca i64, align 8
  store ptr %0, ptr %2, align 8, !tbaa !3
  call void @llvm.lifetime.start.p0(i64 8, ptr %3) #10
  %5 = load ptr, ptr %2, align 8, !tbaa !3
  store ptr %5, ptr %3, align 8, !tbaa !8
  call void @llvm.lifetime.start.p0(i64 8, ptr %4) #10
  %6 = load ptr, ptr %3, align 8, !tbaa !8
  %7 = call i32 @get_sock_fd(ptr noundef %6)
  %8 = icmp eq i32 %7, -1
  br i1 %8, label %9, label %10

9:                                                ; preds = %1
  store i64 -1, ptr %4, align 8, !tbaa !52
  br label %14

10:                                               ; preds = %1
  %11 = load ptr, ptr %3, align 8, !tbaa !8
  %12 = call i32 @get_sock_fd(ptr noundef %11)
  %13 = sext i32 %12 to i64
  store i64 %13, ptr %4, align 8, !tbaa !52
  br label %14

14:                                               ; preds = %10, %9
  %15 = load i64, ptr %4, align 8, !tbaa !52
  %16 = load ptr, ptr %3, align 8, !tbaa !8
  %17 = getelementptr inbounds nuw %struct.PySocketSockObject, ptr %16, i32 0, i32 2
  %18 = load i32, ptr %17, align 4, !tbaa !106
  %19 = load ptr, ptr %3, align 8, !tbaa !8
  %20 = getelementptr inbounds nuw %struct.PySocketSockObject, ptr %19, i32 0, i32 3
  %21 = load i32, ptr %20, align 8, !tbaa !108
  %22 = load ptr, ptr %3, align 8, !tbaa !8
  %23 = getelementptr inbounds nuw %struct.PySocketSockObject, ptr %22, i32 0, i32 4
  %24 = load i32, ptr %23, align 4, !tbaa !109
  %25 = call ptr (ptr, ...) @PyUnicode_FromFormat(ptr noundef @.str.529, i64 noundef %15, i32 noundef %18, i32 noundef %21, i32 noundef %24)
  call void @llvm.lifetime.end.p0(i64 8, ptr %4) #10
  call void @llvm.lifetime.end.p0(i64 8, ptr %3) #10
  ret ptr %25
}