; Function Attrs: nounwind uwtable
define internal ptr @sock_repr(ptr noundef readonly captures(none) %0) #0 {
  %2 = getelementptr i8, ptr %0, i64 16
  %.val6 = load i32, ptr %2, align 8, !tbaa !83
  %3 = sext i32 %.val6 to i64
  %4 = getelementptr inbounds nuw i8, ptr %0, i64 20
  %5 = load i32, ptr %4, align 4, !tbaa !86
  %6 = getelementptr inbounds nuw i8, ptr %0, i64 24
  %7 = load i32, ptr %6, align 8, !tbaa !87
  %8 = getelementptr inbounds nuw i8, ptr %0, i64 28
  %9 = load i32, ptr %8, align 4, !tbaa !88
  %10 = tail call ptr (ptr, ...) @PyUnicode_FromFormat(ptr noundef nonnull @.str.529, i64 noundef %3, i32 noundef %5, i32 noundef %7, i32 noundef %9) #13
  ret ptr %10
}